; ModuleID = 'source-C-CXX/42/152.cpp'
source_filename = "source-C-CXX/42/152.cpp"
target datalayout = "e-m:e-p270:32:32-p271:32:32-p272:64:64-i64:64-f80:128-n8:16:32:64-S128"
target triple = "x86_64-pc-linux-gnu"

%"class.std::ios_base::Init" = type { i8 }
%"class.std::basic_istream" = type { i32 (...)**, i64, %"class.std::basic_ios" }
%"class.std::basic_ios" = type { %"class.std::ios_base", %"class.std::basic_ostream"*, i8, i8, %"class.std::basic_streambuf"*, %"class.std::ctype"*, %"class.std::num_put"*, %"class.std::num_get"* }
%"class.std::ios_base" = type { i32 (...)**, i64, i64, i32, i32, i32, %"struct.std::ios_base::_Callback_list"*, %"struct.std::ios_base::_Words", [8 x %"struct.std::ios_base::_Words"], i32, %"struct.std::ios_base::_Words"*, %"class.std::locale" }
%"struct.std::ios_base::_Callback_list" = type { %"struct.std::ios_base::_Callback_list"*, void (i32, %"class.std::ios_base"*, i32)*, i32, i32 }
%"struct.std::ios_base::_Words" = type { i8*, i64 }
%"class.std::locale" = type { %"class.std::locale::_Impl"* }
%"class.std::locale::_Impl" = type { i32, %"class.std::locale::facet"**, i64, %"class.std::locale::facet"**, i8** }
%"class.std::locale::facet" = type <{ i32 (...)**, i32, [4 x i8] }>
%"class.std::basic_ostream" = type { i32 (...)**, %"class.std::basic_ios" }
%"class.std::basic_streambuf" = type { i32 (...)**, i8*, i8*, i8*, i8*, i8*, i8*, %"class.std::locale" }
%"class.std::ctype" = type <{ %"class.std::locale::facet.base", [4 x i8], %struct.__locale_struct*, i8, [7 x i8], i32*, i32*, i16*, i8, [256 x i8], [256 x i8], i8, [6 x i8] }>
%"class.std::locale::facet.base" = type <{ i32 (...)**, i32 }>
%struct.__locale_struct = type { [13 x %struct.__locale_data*], i16*, i32*, i32*, [13 x i8*] }
%struct.__locale_data = type opaque
%"class.std::num_put" = type { %"class.std::locale::facet.base", [4 x i8] }
%"class.std::num_get" = type { %"class.std::locale::facet.base", [4 x i8] }

@_ZStL8__ioinit = internal global %"class.std::ios_base::Init" zeroinitializer, align 1
@__dso_handle = external hidden global i8
@_ZSt3cin = external global %"class.std::basic_istream", align 8
@_ZSt4cout = external global %"class.std::basic_ostream", align 8
@.str = private unnamed_addr constant [2 x i8] c" \00", align 1
@llvm.global_ctors = appending global [1 x { i32, void ()*, i8* }] [{ i32, void ()*, i8* } { i32 65535, void ()* @_GLOBAL__sub_I_152.cpp, i8* null }]

declare void @_ZNSt8ios_base4InitC1Ev(%"class.std::ios_base::Init"* nonnull align 1 dereferenceable(1)) unnamed_addr #0

; Function Attrs: nounwind
declare void @_ZNSt8ios_base4InitD1Ev(%"class.std::ios_base::Init"* nonnull align 1 dereferenceable(1)) unnamed_addr #1

; Function Attrs: nofree nounwind
declare i32 @__cxa_atexit(void (i8*)*, i8*, i8*) local_unnamed_addr #2

; Function Attrs: mustprogress nofree nounwind sspstrong uwtable
define dso_local i32 @_Z5checki(i32 %0) local_unnamed_addr #3 {
  %2 = icmp eq i32 %0, 2
  br i1 %2, label %16, label %3

3:                                                ; preds = %1
  %4 = sitofp i32 %0 to double
  %5 = tail call double @sqrt(double %4) #9
  %6 = fcmp ult double %5, 2.000000e+00
  br i1 %6, label %16, label %11

7:                                                ; preds = %11
  %8 = sitofp i32 %15 to double
  %9 = tail call double @sqrt(double %4) #9
  %10 = fcmp ult double %9, %8
  br i1 %10, label %16, label %11, !llvm.loop !5

11:                                               ; preds = %3, %7
  %12 = phi i32 [ %15, %7 ], [ 2, %3 ]
  %13 = srem i32 %0, %12
  %14 = icmp eq i32 %13, 0
  %15 = add nuw nsw i32 %12, 1
  br i1 %14, label %16, label %7

16:                                               ; preds = %7, %11, %3, %1
  %17 = phi i32 [ 0, %1 ], [ 1, %3 ], [ 1, %7 ], [ 0, %11 ]
  ret i32 %17
}

; Function Attrs: argmemonly mustprogress nofree nosync nounwind willreturn
declare void @llvm.lifetime.start.p0i8(i64 immarg, i8* nocapture) #4

; Function Attrs: argmemonly mustprogress nofree nosync nounwind willreturn
declare void @llvm.lifetime.end.p0i8(i64 immarg, i8* nocapture) #4

; Function Attrs: mustprogress norecurse sspstrong uwtable
define dso_local i32 @main() local_unnamed_addr #5 {
  %1 = alloca i32, align 4
  %2 = bitcast i32* %1 to i8*
  call void @llvm.lifetime.start.p0i8(i64 4, i8* nonnull %2) #9
  %3 = call nonnull align 8 dereferenceable(16) %"class.std::basic_istream"* @_ZNSirsERi(%"class.std::basic_istream"* nonnull align 8 dereferenceable(16) @_ZSt3cin, i32* nonnull align 4 dereferenceable(4) %1)
  %4 = load i32, i32* %1, align 4, !tbaa !7
  %5 = icmp slt i32 %4, 6
  br i1 %5, label %6, label %7

6:                                                ; preds = %73, %0
  call void @llvm.lifetime.end.p0i8(i64 4, i8* nonnull %2) #9
  ret i32 0

7:                                                ; preds = %0, %73
  %8 = phi i32 [ %74, %73 ], [ 3, %0 ]
  %9 = sitofp i32 %8 to double
  %10 = call double @sqrt(double %9) #9
  %11 = fcmp ult double %10, 2.000000e+00
  br i1 %11, label %21, label %16

12:                                               ; preds = %16
  %13 = sitofp i32 %20 to double
  %14 = call double @sqrt(double %9) #9
  %15 = fcmp ult double %14, %13
  br i1 %15, label %21, label %16, !llvm.loop !5

16:                                               ; preds = %7, %12
  %17 = phi i32 [ %20, %12 ], [ 2, %7 ]
  %18 = urem i32 %8, %17
  %19 = icmp eq i32 %18, 0
  %20 = add nuw nsw i32 %17, 1
  br i1 %19, label %73, label %12

21:                                               ; preds = %12, %7
  %22 = load i32, i32* %1, align 4, !tbaa !7
  %23 = sub nsw i32 %22, %8
  %24 = icmp eq i32 %23, 2
  br i1 %24, label %73, label %25

25:                                               ; preds = %21
  %26 = sitofp i32 %23 to double
  %27 = call double @sqrt(double %26) #9
  %28 = fcmp ult double %27, 2.000000e+00
  br i1 %28, label %38, label %33

29:                                               ; preds = %33
  %30 = sitofp i32 %37 to double
  %31 = call double @sqrt(double %26) #9
  %32 = fcmp ult double %31, %30
  br i1 %32, label %38, label %33, !llvm.loop !5

33:                                               ; preds = %25, %29
  %34 = phi i32 [ %37, %29 ], [ 2, %25 ]
  %35 = srem i32 %23, %34
  %36 = icmp eq i32 %35, 0
  %37 = add nuw nsw i32 %34, 1
  br i1 %36, label %73, label %29

38:                                               ; preds = %29, %25
  %39 = call nonnull align 8 dereferenceable(8) %"class.std::basic_ostream"* @_ZNSolsEi(%"class.std::basic_ostream"* nonnull align 8 dereferenceable(8) @_ZSt4cout, i32 %8)
  %40 = call nonnull align 8 dereferenceable(8) %"class.std::basic_ostream"* @_ZSt16__ostream_insertIcSt11char_traitsIcEERSt13basic_ostreamIT_T0_ES6_PKS3_l(%"class.std::basic_ostream"* nonnull align 8 dereferenceable(8) %39, i8* nonnull getelementptr inbounds ([2 x i8], [2 x i8]* @.str, i64 0, i64 0), i64 1)
  %41 = load i32, i32* %1, align 4, !tbaa !7
  %42 = sub nsw i32 %41, %8
  %43 = call nonnull align 8 dereferenceable(8) %"class.std::basic_ostream"* @_ZNSolsEi(%"class.std::basic_ostream"* nonnull align 8 dereferenceable(8) %39, i32 %42)
  %44 = bitcast %"class.std::basic_ostream"* %43 to i8**
  %45 = load i8*, i8** %44, align 8, !tbaa !11
  %46 = getelementptr i8, i8* %45, i64 -24
  %47 = bitcast i8* %46 to i64*
  %48 = load i64, i64* %47, align 8
  %49 = bitcast %"class.std::basic_ostream"* %43 to i8*
  %50 = add nsw i64 %48, 240
  %51 = getelementptr inbounds i8, i8* %49, i64 %50
  %52 = bitcast i8* %51 to %"class.std::ctype"**
  %53 = load %"class.std::ctype"*, %"class.std::ctype"** %52, align 8, !tbaa !13
  %54 = icmp eq %"class.std::ctype"* %53, null
  br i1 %54, label %55, label %56

55:                                               ; preds = %38
  call void @_ZSt16__throw_bad_castv() #10
  unreachable

56:                                               ; preds = %38
  %57 = getelementptr inbounds %"class.std::ctype", %"class.std::ctype"* %53, i64 0, i32 8
  %58 = load i8, i8* %57, align 8, !tbaa !17
  %59 = icmp eq i8 %58, 0
  br i1 %59, label %63, label %60

60:                                               ; preds = %56
  %61 = getelementptr inbounds %"class.std::ctype", %"class.std::ctype"* %53, i64 0, i32 9, i64 10
  %62 = load i8, i8* %61, align 1, !tbaa !19
  br label %69

63:                                               ; preds = %56
  call void @_ZNKSt5ctypeIcE13_M_widen_initEv(%"class.std::ctype"* nonnull align 8 dereferenceable(570) %53)
  %64 = bitcast %"class.std::ctype"* %53 to i8 (%"class.std::ctype"*, i8)***
  %65 = load i8 (%"class.std::ctype"*, i8)**, i8 (%"class.std::ctype"*, i8)*** %64, align 8, !tbaa !11
  %66 = getelementptr inbounds i8 (%"class.std::ctype"*, i8)*, i8 (%"class.std::ctype"*, i8)** %65, i64 6
  %67 = load i8 (%"class.std::ctype"*, i8)*, i8 (%"class.std::ctype"*, i8)** %66, align 8
  %68 = call signext i8 %67(%"class.std::ctype"* nonnull align 8 dereferenceable(570) %53, i8 signext 10)
  br label %69

69:                                               ; preds = %60, %63
  %70 = phi i8 [ %62, %60 ], [ %68, %63 ]
  %71 = call nonnull align 8 dereferenceable(8) %"class.std::basic_ostream"* @_ZNSo3putEc(%"class.std::basic_ostream"* nonnull align 8 dereferenceable(8) %43, i8 signext %70)
  %72 = call nonnull align 8 dereferenceable(8) %"class.std::basic_ostream"* @_ZNSo5flushEv(%"class.std::basic_ostream"* nonnull align 8 dereferenceable(8) %71)
  br label %73

73:                                               ; preds = %16, %33, %21, %69
  %74 = add nuw nsw i32 %8, 1
  %75 = load i32, i32* %1, align 4, !tbaa !7
  %76 = sdiv i32 %75, 2
  %77 = icmp slt i32 %8, %76
  br i1 %77, label %7, label %6, !llvm.loop !20
}

declare nonnull align 8 dereferenceable(16) %"class.std::basic_istream"* @_ZNSirsERi(%"class.std::basic_istream"* nonnull align 8 dereferenceable(16), i32* nonnull align 4 dereferenceable(4)) local_unnamed_addr #0

declare nonnull align 8 dereferenceable(8) %"class.std::basic_ostream"* @_ZNSolsEi(%"class.std::basic_ostream"* nonnull align 8 dereferenceable(8), i32) local_unnamed_addr #0

; Function Attrs: mustprogress nofree nounwind willreturn
declare double @sqrt(double) local_unnamed_addr #6

declare nonnull align 8 dereferenceable(8) %"class.std::basic_ostream"* @_ZSt16__ostream_insertIcSt11char_traitsIcEERSt13basic_ostreamIT_T0_ES6_PKS3_l(%"class.std::basic_ostream"* nonnull align 8 dereferenceable(8), i8*, i64) local_unnamed_addr #0

declare nonnull align 8 dereferenceable(8) %"class.std::basic_ostream"* @_ZNSo3putEc(%"class.std::basic_ostream"* nonnull align 8 dereferenceable(8), i8 signext) local_unnamed_addr #0

declare nonnull align 8 dereferenceable(8) %"class.std::basic_ostream"* @_ZNSo5flushEv(%"class.std::basic_ostream"* nonnull align 8 dereferenceable(8)) local_unnamed_addr #0

; Function Attrs: noreturn
declare void @_ZSt16__throw_bad_castv() local_unnamed_addr #7

declare void @_ZNKSt5ctypeIcE13_M_widen_initEv(%"class.std::ctype"* nonnull align 8 dereferenceable(570)) local_unnamed_addr #0

; Function Attrs: sspstrong uwtable
define internal void @_GLOBAL__sub_I_152.cpp() #8 section ".text.startup" {
  tail call void @_ZNSt8ios_base4InitC1Ev(%"class.std::ios_base::Init"* nonnull align 1 dereferenceable(1) @_ZStL8__ioinit)
  %1 = tail call i32 @__cxa_atexit(void (i8*)* bitcast (void (%"class.std::ios_base::Init"*)* @_ZNSt8ios_base4InitD1Ev to void (i8*)*), i8* getelementptr inbounds (%"class.std::ios_base::Init", %"class.std::ios_base::Init"* @_ZStL8__ioinit, i64 0, i32 0), i8* nonnull @__dso_handle) #9
  ret void
}


!llvm.module.flags = !{!0, !1, !2, !3}
!llvm.ident = !{!4}

!0 = !{i32 1, !"wchar_size", i32 4}
!1 = !{i32 7, !"PIC Level", i32 2}
!2 = !{i32 7, !"PIE Level", i32 2}
!3 = !{i32 7, !"uwtable", i32 1}
!4 = !{!"clang version 13.0.0"}
!5 = distinct !{!5, !6}
!6 = !{!"llvm.loop.mustprogress"}
!7 = !{!8, !8, i64 0}
!8 = !{!"int", !9, i64 0}
!9 = !{!"omnipotent char", !10, i64 0}
!10 = !{!"Simple C++ TBAA"}
!11 = !{!12, !12, i64 0}
!12 = !{!"vtable pointer", !10, i64 0}
!13 = !{!14, !15, i64 240}
!14 = !{!"_ZTSSt9basic_iosIcSt11char_traitsIcEE", !15, i64 216, !9, i64 224, !16, i64 225, !15, i64 232, !15, i64 240, !15, i64 248, !15, i64 256}
!15 = !{!"any pointer", !9, i64 0}
!16 = !{!"bool", !9, i64 0}
!17 = !{!18, !9, i64 56}
!18 = !{!"_ZTSSt5ctypeIcE", !15, i64 16, !16, i64 24, !15, i64 32, !15, i64 40, !15, i64 48, !9, i64 56, !9, i64 57, !9, i64 313, !9, i64 569}
!19 = !{!9, !9, i64 0}
!20 = distinct !{!20, !6}
